target datalayout = "e-m:e-p270:32:32-p271:32:32-p272:64:64-i64:64-i128:128-f80:128-n8:16:32:64-S128"
target triple = "x86_64-pc-linux-gnu"

%struct.mbedtls_mpi = type { ptr, i16, i16 }
%struct.mbedtls_rsa_context = type { i32, i64, %struct.mbedtls_mpi, %struct.mbedtls_mpi, %struct.mbedtls_mpi, %struct.mbedtls_mpi, %struct.mbedtls_mpi, %struct.mbedtls_mpi, %struct.mbedtls_mpi, %struct.mbedtls_mpi, %struct.mbedtls_mpi, %struct.mbedtls_mpi, %struct.mbedtls_mpi, %struct.mbedtls_mpi, %struct.mbedtls_mpi, i32, i32 }

; Function Attrs: nounwind uwtable
define hidden i32 @mbedtls_rsa_rsassa_pss_verify(ptr noundef %0, i32 noundef %1, i32 noundef %2, ptr noundef %3, ptr noundef %4) #0 {
  %6 = alloca i32, align 4
  %7 = alloca ptr, align 8
  %8 = alloca i32, align 4
  %9 = alloca i32, align 4
  %10 = alloca ptr, align 8
  %11 = alloca ptr, align 8
  %12 = alloca i32, align 4
  %13 = alloca i32, align 4
  store ptr %0, ptr %7, align 8, !tbaa !3
  store i32 %1, ptr %8, align 4, !tbaa !12
  store i32 %2, ptr %9, align 4, !tbaa !12
  store ptr %3, ptr %10, align 8, !tbaa !8
  store ptr %4, ptr %11, align 8, !tbaa !8
  call void @llvm.lifetime.start.p0(i64 4, ptr %12) #9
  %14 = load i32, ptr %8, align 4, !tbaa !12
  %15 = icmp ne i32 %14, 0
  br i1 %15, label %19, label %16

16:                                               ; preds = %5
  %17 = load i32, ptr %9, align 4, !tbaa !12
  %18 = icmp ne i32 %17, 0
  br i1 %18, label %19, label %23

19:                                               ; preds = %16, %5
  %20 = load ptr, ptr %10, align 8, !tbaa !8
  %21 = icmp eq ptr %20, null
  br i1 %21, label %22, label %23

22:                                               ; preds = %19
  store i32 -16512, ptr %6, align 4
  store i32 1, ptr %13, align 4
  br label %43

23:                                               ; preds = %19, %16
  %24 = load ptr, ptr %7, align 8, !tbaa !3
  %25 = getelementptr inbounds nuw %struct.mbedtls_rsa_context, ptr %24, i32 0, i32 16
  %26 = load i32, ptr %25, align 4, !tbaa !25
  %27 = icmp ne i32 %26, 0
  br i1 %27, label %28, label %32

28:                                               ; preds = %23
  %29 = load ptr, ptr %7, align 8, !tbaa !3
  %30 = getelementptr inbounds nuw %struct.mbedtls_rsa_context, ptr %29, i32 0, i32 16
  %31 = load i32, ptr %30, align 4, !tbaa !25
  br label %34

32:                                               ; preds = %23
  %33 = load i32, ptr %8, align 4, !tbaa !12
  br label %34

34:                                               ; preds = %32, %28
  %35 = phi i32 [ %31, %28 ], [ %33, %32 ]
  store i32 %35, ptr %12, align 4, !tbaa !12
  %36 = load ptr, ptr %7, align 8, !tbaa !3
  %37 = load i32, ptr %8, align 4, !tbaa !12
  %38 = load i32, ptr %9, align 4, !tbaa !12
  %39 = load ptr, ptr %10, align 8, !tbaa !8
  %40 = load i32, ptr %12, align 4, !tbaa !12
  %41 = load ptr, ptr %11, align 8, !tbaa !8
  %42 = call i32 @mbedtls_rsa_rsassa_pss_verify_ext(ptr noundef %36, i32 noundef %37, i32 noundef %38, ptr noundef %39, i32 noundef %40, i32 noundef -1, ptr noundef %41)
  store i32 %42, ptr %6, align 4
  store i32 1, ptr %13, align 4
  br label %43

43:                                               ; preds = %34, %22
  call void @llvm.lifetime.end.p0(i64 4, ptr %12) #9
  %44 = load i32, ptr %6, align 4
  ret i32 %44
}

; Function Attrs: nounwind uwtable
define hidden i32 @mbedtls_rsa_pkcs1_verify(ptr noundef %0, i32 noundef %1, i32 noundef %2, ptr noundef %3, ptr noundef %4) #0 {
  %6 = alloca i32, align 4
  %7 = alloca ptr, align 8
  %8 = alloca i32, align 4
  %9 = alloca i32, align 4
  %10 = alloca ptr, align 8
  %11 = alloca ptr, align 8
  store ptr %0, ptr %7, align 8, !tbaa !3
  store i32 %1, ptr %8, align 4, !tbaa !12
  store i32 %2, ptr %9, align 4, !tbaa !12
  store ptr %3, ptr %10, align 8, !tbaa !8
  store ptr %4, ptr %11, align 8, !tbaa !8
  %12 = load i32, ptr %8, align 4, !tbaa !12
  %13 = icmp ne i32 %12, 0
  br i1 %13, label %17, label %14

14:                                               ; preds = %5
  %15 = load i32, ptr %9, align 4, !tbaa !12
  %16 = icmp ne i32 %15, 0
  br i1 %16, label %17, label %21

17:                                               ; preds = %14, %5
  %18 = load ptr, ptr %10, align 8, !tbaa !8
  %19 = icmp eq ptr %18, null
  br i1 %19, label %20, label %21

20:                                               ; preds = %17
  store i32 -16512, ptr %6, align 4
  br label %40

21:                                               ; preds = %17, %14
  %22 = load ptr, ptr %7, align 8, !tbaa !3
  %23 = getelementptr inbounds nuw %struct.mbedtls_rsa_context, ptr %22, i32 0, i32 15
  %24 = load i32, ptr %23, align 8, !tbaa !24
  switch i32 %24, label %39 [
    i32 0, label %25
    i32 1, label %32
  ]

25:                                               ; preds = %21
  %26 = load ptr, ptr %7, align 8, !tbaa !3
  %27 = load i32, ptr %8, align 4, !tbaa !12
  %28 = load i32, ptr %9, align 4, !tbaa !12
  %29 = load ptr, ptr %10, align 8, !tbaa !8
  %30 = load ptr, ptr %11, align 8, !tbaa !8
  %31 = call i32 @mbedtls_rsa_rsassa_pkcs1_v15_verify(ptr noundef %26, i32 noundef %27, i32 noundef %28, ptr noundef %29, ptr noundef %30)
  store i32 %31, ptr %6, align 4
  br label %40

32:                                               ; preds = %21
  %33 = load ptr, ptr %7, align 8, !tbaa !3
  %34 = load i32, ptr %8, align 4, !tbaa !12
  %35 = load i32, ptr %9, align 4, !tbaa !12
  %36 = load ptr, ptr %10, align 8, !tbaa !8
  %37 = load ptr, ptr %11, align 8, !tbaa !8
  %38 = call i32 @mbedtls_rsa_rsassa_pss_verify(ptr noundef %33, i32 noundef %34, i32 noundef %35, ptr noundef %36, ptr noundef %37)
  store i32 %38, ptr %6, align 4
  br label %40

39:                                               ; preds = %21
  store i32 -16640, ptr %6, align 4
  br label %40

40:                                               ; preds = %39, %32, %25, %20
  %41 = load i32, ptr %6, align 4
  ret i32 %41
}