; Function Attrs: nounwind uwtable
define hidden i32 @mbedtls_rsa_pkcs1_verify(ptr noundef %0, i32 noundef %1, i32 noundef %2, ptr noundef %3, ptr noundef %4) local_unnamed_addr #0 {
  %6 = or i32 %2, %1
  %or.cond = icmp ne i32 %6, 0
  %7 = icmp eq ptr %3, null
  %or.cond3 = and i1 %or.cond, %7
  br i1 %or.cond3, label %16, label %8

8:                                                ; preds = %5
  %9 = getelementptr inbounds nuw i8, ptr %0, i64 224
  %10 = load i32, ptr %9, align 8, !tbaa !17
  switch i32 %10, label %16 [
    i32 0, label %11
    i32 1, label %mbedtls_rsa_rsassa_pss_verify.exit
  ]

11:                                               ; preds = %8
  %12 = tail call i32 @mbedtls_rsa_rsassa_pkcs1_v15_verify(ptr noundef nonnull %0, i32 noundef %1, i32 noundef %2, ptr noundef %3, ptr noundef %4)
  br label %16

mbedtls_rsa_rsassa_pss_verify.exit:               ; preds = %8
  %13 = getelementptr inbounds nuw i8, ptr %0, i64 228
  %14 = load i32, ptr %13, align 4, !tbaa !18
  %.not.i = icmp eq i32 %14, 0
  %..i = select i1 %.not.i, i32 %1, i32 %14
  %15 = tail call i32 @mbedtls_rsa_rsassa_pss_verify_ext(ptr noundef nonnull %0, i32 noundef %1, i32 noundef %2, ptr noundef %3, i32 noundef %..i, i32 noundef -1, ptr noundef %4)
  br label %16

16:                                               ; preds = %8, %5, %mbedtls_rsa_rsassa_pss_verify.exit, %11
  %.0 = phi i32 [ %15, %mbedtls_rsa_rsassa_pss_verify.exit ], [ %12, %11 ], [ -16512, %5 ], [ -16640, %8 ]
  ret i32 %.0
}